target datalayout = "e-m:e-p270:32:32-p271:32:32-p272:64:64-i64:64-i128:128-f80:128-n8:16:32:64-S128"
target triple = "x86_64-pc-linux-gnu"

@.str.5 = private unnamed_addr constant [8 x i8] c"COLUMNS\00", align 1

; Function Attrs: mustprogress nounwind uwtable
define dso_local noundef zeroext i1 @_ZN4llvm3sys7Process25FileDescriptorIsDisplayedEi(i32 noundef %0) #0 align 2 {
  %2 = alloca i32, align 4
  store i32 %0, ptr %2, align 4
  %3 = load i32, ptr %2, align 4
  %4 = call i32 @isatty(i32 noundef %3) #8
  %5 = icmp ne i32 %4, 0
  ret i1 %5
}

; Function Attrs: mustprogress nounwind uwtable
define internal noundef i32 @_ZL10getColumnsv() #0 {
  %1 = alloca i32, align 4
  %2 = alloca ptr, align 8
  %3 = alloca i32, align 4
  %4 = call ptr @getenv(ptr noundef @.str.5) #8
  store ptr %4, ptr %2, align 8
  %5 = load ptr, ptr %2, align 8
  %6 = icmp ne ptr %5, null
  br i1 %6, label %7, label %15

7:                                                ; preds = %0
  %8 = load ptr, ptr %2, align 8
  %9 = call i32 @atoi(ptr noundef %8) #14
  store i32 %9, ptr %3, align 4
  %10 = load i32, ptr %3, align 4
  %11 = icmp sgt i32 %10, 0
  br i1 %11, label %12, label %14

12:                                               ; preds = %7
  %13 = load i32, ptr %3, align 4
  store i32 %13, ptr %1, align 4
  br label %16

14:                                               ; preds = %7
  br label %15

15:                                               ; preds = %14, %0
  store i32 0, ptr %1, align 4
  br label %16

16:                                               ; preds = %15, %12
  %17 = load i32, ptr %1, align 4
  ret i32 %17
}

; Function Attrs: mustprogress nounwind uwtable
define dso_local noundef zeroext i1 @_ZN4llvm3sys7Process22StandardOutIsDisplayedEv() #0 align 2 {
  %1 = call noundef zeroext i1 @_ZN4llvm3sys7Process25FileDescriptorIsDisplayedEi(i32 noundef 1)
  ret i1 %1
}

; Function Attrs: mustprogress nounwind uwtable
define dso_local noundef i32 @_ZN4llvm3sys7Process18StandardOutColumnsEv() #0 align 2 {
  %1 = alloca i32, align 4
  %2 = call noundef zeroext i1 @_ZN4llvm3sys7Process22StandardOutIsDisplayedEv()
  br i1 %2, label %4, label %3

3:                                                ; preds = %0
  store i32 0, ptr %1, align 4
  br label %6

4:                                                ; preds = %0
  %5 = call noundef i32 @_ZL10getColumnsv()
  store i32 %5, ptr %1, align 4
  br label %6

6:                                                ; preds = %4, %3
  %7 = load i32, ptr %1, align 4
  ret i32 %7
}