; Function Attrs: mustprogress nounwind uwtable
define dso_local noundef range(i32 0, -2147483648) i32 @_ZN4llvm3sys7Process18StandardOutColumnsEv() local_unnamed_addr #0 align 2 {
  %1 = tail call i32 @isatty(i32 noundef 1) #22
  %.not = icmp eq i32 %1, 0
  br i1 %.not, label %_ZL10getColumnsv.exit, label %2

2:                                                ; preds = %0
  %3 = tail call ptr @getenv(ptr noundef nonnull @.str.5) #22
  %.not.i = icmp eq ptr %3, null
  br i1 %.not.i, label %7, label %4

4:                                                ; preds = %2
  %5 = tail call i32 @atoi(ptr nocapture noundef nonnull %3) #26
  %6 = icmp sgt i32 %5, 0
  br i1 %6, label %_ZL10getColumnsv.exit, label %7

7:                                                ; preds = %4, %2
  br label %_ZL10getColumnsv.exit

_ZL10getColumnsv.exit:                            ; preds = %7, %4, %0
  %.0 = phi i32 [ 0, %0 ], [ 0, %7 ], [ %5, %4 ]
  ret i32 %.0
}